target datalayout = "e-m:e-p270:32:32-p271:32:32-p272:64:64-i64:64-i128:128-f80:128-n8:16:32:64-S128"
target triple = "x86_64-pc-linux-gnu"

%struct.expert_field = type { i32, i32 }

@ett_bgp_mp_reach_nlri = internal global i32 0, align 4
@hf_bgp_ls_type = internal global i32 0, align 4
@hf_bgp_ls_length = internal global i32 0, align 4
@hf_bgp_ls_tlv_local_node_descriptors = internal global i32 0, align 4
@hf_bgp_ls_tlv_remote_node_descriptors = internal global i32 0, align 4
@ei_bgp_ls_error = internal global %struct.expert_field zeroinitializer, align 4
@.str.1901 = private unnamed_addr constant [55 x i8] c"Expected/actual tlv mismatch, expected: %u, actual: %u\00", align 1

; Function Attrs: null_pointer_is_valid sspstrong uwtable
define internal i32 @decode_bgp_link_node_nlri_tlvs(ptr noundef %0, ptr noundef %1, i32 noundef %2, ptr noundef %3, i16 noundef zeroext %4) #0 {
  %6 = alloca ptr, align 8
  %7 = alloca ptr, align 8
  %8 = alloca i32, align 4
  %9 = alloca ptr, align 8
  %10 = alloca i16, align 2
  %11 = alloca i16, align 2
  %12 = alloca i16, align 2
  %13 = alloca ptr, align 8
  %14 = alloca ptr, align 8
  store ptr %0, ptr %6, align 8
  store ptr %1, ptr %7, align 8
  store i32 %2, ptr %8, align 4
  store ptr %3, ptr %9, align 8
  store i16 %4, ptr %10, align 2
  call void @llvm.lifetime.start.p0(i64 2, ptr %11) #6
  call void @llvm.lifetime.start.p0(i64 2, ptr %12) #6
  call void @llvm.lifetime.start.p0(i64 8, ptr %13) #6
  call void @llvm.lifetime.start.p0(i64 8, ptr %14) #6
  %15 = load ptr, ptr %6, align 8
  %16 = load i32, ptr %8, align 4
  %17 = call zeroext i16 @tvb_get_ntohs(ptr noundef %15, i32 noundef %16)
  store i16 %17, ptr %12, align 2
  %18 = load ptr, ptr %6, align 8
  %19 = load i32, ptr %8, align 4
  %20 = add i32 %19, 2
  %21 = call zeroext i16 @tvb_get_ntohs(ptr noundef %18, i32 noundef %20)
  store i16 %21, ptr %11, align 2
  %22 = load i16, ptr %10, align 2
  %23 = zext i16 %22 to i32
  %24 = load i16, ptr %12, align 2
  %25 = zext i16 %24 to i32
  %26 = icmp ne i32 %23, %25
  br i1 %26, label %27, label %35

27:                                               ; preds = %5
  %28 = load ptr, ptr %9, align 8
  %29 = load ptr, ptr %7, align 8
  %30 = load i16, ptr %10, align 2
  %31 = zext i16 %30 to i32
  %32 = load i16, ptr %12, align 2
  %33 = zext i16 %32 to i32
  %34 = call ptr (ptr, ptr, ptr, ptr, ...) @expert_add_info_format(ptr noundef %28, ptr noundef %29, ptr noundef @ei_bgp_ls_error, ptr noundef @.str.1901, i32 noundef %31, i32 noundef %33)
  br label %35

35:                                               ; preds = %27, %5
  %36 = load i16, ptr %12, align 2
  %37 = zext i16 %36 to i32
  switch i32 %37, label %100 [
    i32 256, label %38
    i32 257, label %69
  ]

38:                                               ; preds = %35
  %39 = load ptr, ptr %7, align 8
  %40 = load i32, ptr @hf_bgp_ls_tlv_local_node_descriptors, align 4
  %41 = load ptr, ptr %6, align 8
  %42 = load i32, ptr %8, align 4
  %43 = load i16, ptr %11, align 2
  %44 = zext i16 %43 to i32
  %45 = add i32 %44, 4
  %46 = call ptr @proto_tree_add_item(ptr noundef %39, i32 noundef %40, ptr noundef %41, i32 noundef %42, i32 noundef %45, i32 noundef 0)
  store ptr %46, ptr %14, align 8
  %47 = load ptr, ptr %14, align 8
  %48 = load i32, ptr @ett_bgp_mp_reach_nlri, align 4
  %49 = call ptr @proto_item_add_subtree(ptr noundef %47, i32 noundef %48)
  store ptr %49, ptr %13, align 8
  %50 = load ptr, ptr %13, align 8
  %51 = load i32, ptr @hf_bgp_ls_type, align 4
  %52 = load ptr, ptr %6, align 8
  %53 = load i32, ptr %8, align 4
  %54 = call ptr @proto_tree_add_item(ptr noundef %50, i32 noundef %51, ptr noundef %52, i32 noundef %53, i32 noundef 2, i32 noundef 0)
  %55 = load ptr, ptr %13, align 8
  %56 = load i32, ptr @hf_bgp_ls_length, align 4
  %57 = load ptr, ptr %6, align 8
  %58 = load i32, ptr %8, align 4
  %59 = add i32 %58, 2
  %60 = call ptr @proto_tree_add_item(ptr noundef %55, i32 noundef %56, ptr noundef %57, i32 noundef %59, i32 noundef 2, i32 noundef 0)
  %61 = load ptr, ptr %6, align 8
  %62 = load ptr, ptr %13, align 8
  %63 = load i32, ptr %8, align 4
  %64 = add i32 %63, 4
  %65 = load ptr, ptr %9, align 8
  %66 = load i16, ptr %11, align 2
  %67 = zext i16 %66 to i32
  %68 = call i32 @decode_bgp_link_node_descriptor(ptr noundef %61, ptr noundef %62, i32 noundef %64, ptr noundef %65, i32 noundef %67)
  br label %100

69:                                               ; preds = %35
  %70 = load ptr, ptr %7, align 8
  %71 = load i32, ptr @hf_bgp_ls_tlv_remote_node_descriptors, align 4
  %72 = load ptr, ptr %6, align 8
  %73 = load i32, ptr %8, align 4
  %74 = load i16, ptr %11, align 2
  %75 = zext i16 %74 to i32
  %76 = add i32 %75, 4
  %77 = call ptr @proto_tree_add_item(ptr noundef %70, i32 noundef %71, ptr noundef %72, i32 noundef %73, i32 noundef %76, i32 noundef 0)
  store ptr %77, ptr %14, align 8
  %78 = load ptr, ptr %14, align 8
  %79 = load i32, ptr @ett_bgp_mp_reach_nlri, align 4
  %80 = call ptr @proto_item_add_subtree(ptr noundef %78, i32 noundef %79)
  store ptr %80, ptr %13, align 8
  %81 = load ptr, ptr %13, align 8
  %82 = load i32, ptr @hf_bgp_ls_type, align 4
  %83 = load ptr, ptr %6, align 8
  %84 = load i32, ptr %8, align 4
  %85 = call ptr @proto_tree_add_item(ptr noundef %81, i32 noundef %82, ptr noundef %83, i32 noundef %84, i32 noundef 2, i32 noundef 0)
  %86 = load ptr, ptr %13, align 8
  %87 = load i32, ptr @hf_bgp_ls_length, align 4
  %88 = load ptr, ptr %6, align 8
  %89 = load i32, ptr %8, align 4
  %90 = add i32 %89, 2
  %91 = call ptr @proto_tree_add_item(ptr noundef %86, i32 noundef %87, ptr noundef %88, i32 noundef %90, i32 noundef 2, i32 noundef 0)
  %92 = load ptr, ptr %6, align 8
  %93 = load ptr, ptr %13, align 8
  %94 = load i32, ptr %8, align 4
  %95 = add i32 %94, 4
  %96 = load ptr, ptr %9, align 8
  %97 = load i16, ptr %11, align 2
  %98 = zext i16 %97 to i32
  %99 = call i32 @decode_bgp_link_node_descriptor(ptr noundef %92, ptr noundef %93, i32 noundef %95, ptr noundef %96, i32 noundef %98)
  br label %100

100:                                              ; preds = %35, %69, %38
  %101 = load i16, ptr %11, align 2
  %102 = zext i16 %101 to i32
  %103 = add i32 %102, 4
  call void @llvm.lifetime.end.p0(i64 8, ptr %14) #6
  call void @llvm.lifetime.end.p0(i64 8, ptr %13) #6
  call void @llvm.lifetime.end.p0(i64 2, ptr %12) #6
  call void @llvm.lifetime.end.p0(i64 2, ptr %11) #6
  ret i32 %103
}