; Function Attrs: null_pointer_is_valid sspstrong uwtable
define internal fastcc range(i32 4, 65540) i32 @decode_bgp_link_node_nlri_tlvs(ptr noundef %0, ptr noundef %1, i32 noundef %2, ptr noundef %3, i16 noundef zeroext range(i16 256, 258) %4) unnamed_addr #0 {
  %6 = tail call zeroext i16 @tvb_get_ntohs(ptr noundef %0, i32 noundef %2)
  %7 = add i32 %2, 2
  %8 = tail call zeroext i16 @tvb_get_ntohs(ptr noundef %0, i32 noundef %7)
  %.not = icmp eq i16 %4, %6
  br i1 %.not, label %13, label %9

9:                                                ; preds = %5
  %10 = zext i16 %6 to i32
  %11 = zext nneg i16 %4 to i32
  %12 = tail call ptr (ptr, ptr, ptr, ptr, ...) @expert_add_info_format(ptr noundef %3, ptr noundef %1, ptr noundef nonnull @ei_bgp_ls_error, ptr noundef nonnull @.str.1901, i32 noundef %11, i32 noundef %10)
  br label %13

13:                                               ; preds = %9, %5
  switch i16 %6, label %._crit_edge [
    i16 256, label %14
    i16 257, label %26
  ]

._crit_edge:                                      ; preds = %13
  %.pre = zext i16 %8 to i32
  %.pre44 = add nuw nsw i32 %.pre, 4
  br label %38

14:                                               ; preds = %13
  %15 = load i32, ptr @hf_bgp_ls_tlv_local_node_descriptors, align 4
  %16 = zext i16 %8 to i32
  %17 = add nuw nsw i32 %16, 4
  %18 = tail call ptr @proto_tree_add_item(ptr noundef %1, i32 noundef %15, ptr noundef %0, i32 noundef %2, i32 noundef %17, i32 noundef 0)
  %19 = load i32, ptr @ett_bgp_mp_reach_nlri, align 4
  %20 = tail call ptr @proto_item_add_subtree(ptr noundef %18, i32 noundef %19)
  %21 = load i32, ptr @hf_bgp_ls_type, align 4
  %22 = tail call ptr @proto_tree_add_item(ptr noundef %20, i32 noundef %21, ptr noundef %0, i32 noundef %2, i32 noundef 2, i32 noundef 0)
  %23 = load i32, ptr @hf_bgp_ls_length, align 4
  %24 = tail call ptr @proto_tree_add_item(ptr noundef %20, i32 noundef %23, ptr noundef %0, i32 noundef %7, i32 noundef 2, i32 noundef 0)
  %25 = add i32 %2, 4
  tail call fastcc void @decode_bgp_link_node_descriptor(ptr noundef %0, ptr noundef %20, i32 noundef %25, ptr noundef %3, i32 noundef %16)
  br label %38

26:                                               ; preds = %13
  %27 = load i32, ptr @hf_bgp_ls_tlv_remote_node_descriptors, align 4
  %28 = zext i16 %8 to i32
  %29 = add nuw nsw i32 %28, 4
  %30 = tail call ptr @proto_tree_add_item(ptr noundef %1, i32 noundef %27, ptr noundef %0, i32 noundef %2, i32 noundef %29, i32 noundef 0)
  %31 = load i32, ptr @ett_bgp_mp_reach_nlri, align 4
  %32 = tail call ptr @proto_item_add_subtree(ptr noundef %30, i32 noundef %31)
  %33 = load i32, ptr @hf_bgp_ls_type, align 4
  %34 = tail call ptr @proto_tree_add_item(ptr noundef %32, i32 noundef %33, ptr noundef %0, i32 noundef %2, i32 noundef 2, i32 noundef 0)
  %35 = load i32, ptr @hf_bgp_ls_length, align 4
  %36 = tail call ptr @proto_tree_add_item(ptr noundef %32, i32 noundef %35, ptr noundef %0, i32 noundef %7, i32 noundef 2, i32 noundef 0)
  %37 = add i32 %2, 4
  tail call fastcc void @decode_bgp_link_node_descriptor(ptr noundef %0, ptr noundef %32, i32 noundef %37, ptr noundef %3, i32 noundef %28)
  br label %38

38:                                               ; preds = %._crit_edge, %26, %14
  %.pre-phi45 = phi i32 [ %.pre44, %._crit_edge ], [ %29, %26 ], [ %17, %14 ]
  ret i32 %.pre-phi45
}